; Function Attrs: nounwind uwtable
define void @validateTwoQubitUnitaryMatrix(ptr noundef readonly byval(%struct.Qureg) align 8 captures(none) %0, ptr noundef readonly byval(%struct.ComplexMatrix4) align 8 captures(none) %1, ptr noundef %2) local_unnamed_addr #3 {
  %.sroa.3.0..sroa_idx = getelementptr inbounds nuw i8, ptr %0, i64 16
  %.sroa.3.0.copyload = load i64, ptr %.sroa.3.0..sroa_idx, align 8
  %.not.i = icmp slt i64 %.sroa.3.0.copyload, 4
  br i1 %.not.i, label %4, label %validateMultiQubitMatrixFitsInNode.exit

4:                                                ; preds = %3
  tail call void @invalidQuESTInputError(ptr noundef nonnull @.str.48, ptr noundef %2)
  br label %validateMultiQubitMatrixFitsInNode.exit

validateMultiQubitMatrixFitsInNode.exit:          ; preds = %3, %4
  %5 = getelementptr inbounds nuw i8, ptr %1, i64 128
  br label %.preheader46.i

.preheader46.i:                                   ; preds = %.critedge.i, %validateMultiQubitMatrixFitsInNode.exit
  %indvars.iv63.i = phi i64 [ 0, %validateMultiQubitMatrixFitsInNode.exit ], [ %indvars.iv.next64.i, %.critedge.i ]
  br label %.preheader.i

6:                                                ; preds = %7
  %indvars.iv.next60.i = add nuw nsw i64 %indvars.iv59.i, 1
  %exitcond62.i = icmp eq i64 %indvars.iv.next60.i, 4
  br i1 %exitcond62.i, label %.critedge.i, label %.preheader.i

.preheader.i:                                     ; preds = %6, %.preheader46.i
  %indvars.iv59.i = phi i64 [ 0, %.preheader46.i ], [ %indvars.iv.next60.i, %6 ]
  br label %14

7:                                                ; preds = %14
  %8 = icmp eq i64 %indvars.iv63.i, %indvars.iv59.i
  %9 = uitofp i1 %8 to double
  %10 = fsub double %25, %9
  %11 = fmul double %10, %10
  %12 = tail call double @llvm.fmuladd.f64(double %29, double %29, double %11)
  %13 = fcmp ule double %12, 1.000000e-26
  br i1 %13, label %6, label %30

14:                                               ; preds = %14, %.preheader.i
  %indvars.iv.i = phi i64 [ 0, %.preheader.i ], [ %indvars.iv.next.i, %14 ]
  %.03851.i = phi double [ 0.000000e+00, %.preheader.i ], [ %25, %14 ]
  %.04549.i = phi double [ 0.000000e+00, %.preheader.i ], [ %29, %14 ]
  %15 = getelementptr inbounds nuw [4 x [4 x double]], ptr %1, i64 0, i64 %indvars.iv63.i, i64 %indvars.iv.i
  %16 = load double, ptr %15, align 8, !tbaa !9
  %17 = getelementptr inbounds nuw [4 x [4 x double]], ptr %1, i64 0, i64 %indvars.iv59.i, i64 %indvars.iv.i
  %18 = load double, ptr %17, align 8, !tbaa !9
  %19 = getelementptr inbounds nuw [4 x [4 x double]], ptr %5, i64 0, i64 %indvars.iv63.i, i64 %indvars.iv.i
  %20 = load double, ptr %19, align 8, !tbaa !9
  %21 = getelementptr inbounds nuw [4 x [4 x double]], ptr %5, i64 0, i64 %indvars.iv59.i, i64 %indvars.iv.i
  %22 = load double, ptr %21, align 8, !tbaa !9
  %23 = fmul double %20, %22
  %24 = tail call double @llvm.fmuladd.f64(double %16, double %18, double %23)
  %25 = fadd double %.03851.i, %24
  %26 = fneg double %22
  %27 = fmul double %16, %26
  %28 = tail call double @llvm.fmuladd.f64(double %20, double %18, double %27)
  %29 = fadd double %.04549.i, %28
  %indvars.iv.next.i = add nuw nsw i64 %indvars.iv.i, 1
  %exitcond.not.i = icmp eq i64 %indvars.iv.next.i, 4
  br i1 %exitcond.not.i, label %7, label %14

.critedge.i:                                      ; preds = %6
  %indvars.iv.next64.i = add nuw nsw i64 %indvars.iv63.i, 1
  %exitcond66.i = icmp eq i64 %indvars.iv.next64.i, 4
  br i1 %exitcond66.i, label %QuESTAssert.exit, label %.preheader46.i

30:                                               ; preds = %7
  tail call void @invalidQuESTInputError(ptr noundef nonnull @.str.24, ptr noundef %2)
  br label %QuESTAssert.exit

QuESTAssert.exit:                                 ; preds = %.critedge.i, %30
  ret void
}